; Function Attrs: nounwind uwtable
define internal void @_image_geotag_destroy_callback(ptr readnone captures(none) %0, ptr noundef %1, i32 %2, ptr readnone captures(none) %3) #0 {
  %.not = icmp eq ptr %1, null
  br i1 %.not, label %6, label %5

5:                                                ; preds = %4
  tail call void @g_list_free(ptr noundef nonnull %1) #11
  br label %6

6:                                                ; preds = %5, %4
  ret void
}